; ModuleID = 'source-C-CXX/41/2009.c'
source_filename = "source-C-CXX/41/2009.c"
target datalayout = "e-m:e-p270:32:32-p271:32:32-p272:64:64-i64:64-f80:128-n8:16:32:64-S128"
target triple = "x86_64-pc-linux-gnu"

@.str = private unnamed_addr constant [3 x i8] c"%d\00", align 1
@.str.1 = private unnamed_addr constant [4 x i8] c"%d \00", align 1
@.str.2 = private unnamed_addr constant [4 x i8] c"%d\0A\00", align 1

; Function Attrs: nofree nounwind sspstrong uwtable
define dso_local i32 @main() local_unnamed_addr #0 {
  %1 = alloca i32, align 4
  %2 = alloca [100 x i32], align 16
  %3 = alloca i32, align 4
  %4 = bitcast i32* %1 to i8*
  call void @llvm.lifetime.start.p0i8(i64 4, i8* nonnull %4) #3
  %5 = bitcast [100 x i32]* %2 to i8*
  call void @llvm.lifetime.start.p0i8(i64 400, i8* nonnull %5) #3
  %6 = bitcast i32* %3 to i8*
  call void @llvm.lifetime.start.p0i8(i64 4, i8* nonnull %6) #3
  %7 = call i32 (i8*, ...) @__isoc99_scanf(i8* getelementptr inbounds ([3 x i8], [3 x i8]* @.str, i64 0, i64 0), i32* nonnull %1)
  %8 = load i32, i32* %1, align 4, !tbaa !5
  %9 = icmp sgt i32 %8, 0
  br i1 %9, label %10, label %18

10:                                               ; preds = %0, %10
  %11 = phi i64 [ %14, %10 ], [ 0, %0 ]
  %12 = getelementptr inbounds [100 x i32], [100 x i32]* %2, i64 0, i64 %11
  %13 = call i32 (i8*, ...) @__isoc99_scanf(i8* getelementptr inbounds ([3 x i8], [3 x i8]* @.str, i64 0, i64 0), i32* nonnull %12)
  %14 = add nuw nsw i64 %11, 1
  %15 = load i32, i32* %1, align 4, !tbaa !5
  %16 = sext i32 %15 to i64
  %17 = icmp slt i64 %14, %16
  br i1 %17, label %10, label %18, !llvm.loop !9

18:                                               ; preds = %10, %0
  %19 = call i32 (i8*, ...) @__isoc99_scanf(i8* getelementptr inbounds ([3 x i8], [3 x i8]* @.str, i64 0, i64 0), i32* nonnull %3)
  %20 = load i32, i32* %3, align 4
  %21 = load i32, i32* %1, align 4, !tbaa !5
  %22 = icmp sgt i32 %21, 0
  br i1 %22, label %29, label %25

23:                                               ; preds = %113
  %24 = icmp sgt i32 %114, 1
  br i1 %24, label %118, label %25

25:                                               ; preds = %18, %23
  %26 = phi i32 [ %114, %23 ], [ %21, %18 ]
  %27 = add nsw i32 %26, -1
  %28 = sext i32 %27 to i64
  br label %128

29:                                               ; preds = %18, %113
  %30 = phi i32 [ %114, %113 ], [ %21, %18 ]
  %31 = phi i32 [ %116, %113 ], [ 0, %18 ]
  %32 = sext i32 %31 to i64
  %33 = getelementptr inbounds [100 x i32], [100 x i32]* %2, i64 0, i64 %32
  %34 = load i32, i32* %33, align 4, !tbaa !5
  %35 = icmp eq i32 %34, %20
  br i1 %35, label %36, label %113

36:                                               ; preds = %29
  %37 = add nsw i32 %30, -1
  %38 = icmp slt i32 %31, %37
  br i1 %38, label %39, label %111

39:                                               ; preds = %36
  %40 = sext i32 %37 to i64
  %41 = sub nsw i64 %40, %32
  %42 = icmp ult i64 %41, 8
  br i1 %42, label %102, label %43

43:                                               ; preds = %39
  %44 = and i64 %41, -8
  %45 = add nsw i64 %44, %32
  %46 = add nsw i64 %44, -8
  %47 = lshr exact i64 %46, 3
  %48 = add nuw nsw i64 %47, 1
  %49 = and i64 %48, 1
  %50 = icmp eq i64 %46, 0
  br i1 %50, label %84, label %51

51:                                               ; preds = %43
  %52 = and i64 %48, 4611686018427387902
  br label %53

53:                                               ; preds = %53, %51
  %54 = phi i64 [ 0, %51 ], [ %81, %53 ]
  %55 = phi i64 [ %52, %51 ], [ %82, %53 ]
  %56 = add i64 %54, %32
  %57 = add nsw i64 %56, 1
  %58 = getelementptr inbounds [100 x i32], [100 x i32]* %2, i64 0, i64 %57
  %59 = bitcast i32* %58 to <4 x i32>*
  %60 = load <4 x i32>, <4 x i32>* %59, align 4, !tbaa !5
  %61 = getelementptr inbounds i32, i32* %58, i64 4
  %62 = bitcast i32* %61 to <4 x i32>*
  %63 = load <4 x i32>, <4 x i32>* %62, align 4, !tbaa !5
  %64 = getelementptr inbounds [100 x i32], [100 x i32]* %2, i64 0, i64 %56
  %65 = bitcast i32* %64 to <4 x i32>*
  store <4 x i32> %60, <4 x i32>* %65, align 4, !tbaa !5
  %66 = getelementptr inbounds i32, i32* %64, i64 4
  %67 = bitcast i32* %66 to <4 x i32>*
  store <4 x i32> %63, <4 x i32>* %67, align 4, !tbaa !5
  %68 = or i64 %54, 8
  %69 = add i64 %68, %32
  %70 = add nsw i64 %69, 1
  %71 = getelementptr inbounds [100 x i32], [100 x i32]* %2, i64 0, i64 %70
  %72 = bitcast i32* %71 to <4 x i32>*
  %73 = load <4 x i32>, <4 x i32>* %72, align 4, !tbaa !5
  %74 = getelementptr inbounds i32, i32* %71, i64 4
  %75 = bitcast i32* %74 to <4 x i32>*
  %76 = load <4 x i32>, <4 x i32>* %75, align 4, !tbaa !5
  %77 = getelementptr inbounds [100 x i32], [100 x i32]* %2, i64 0, i64 %69
  %78 = bitcast i32* %77 to <4 x i32>*
  store <4 x i32> %73, <4 x i32>* %78, align 4, !tbaa !5
  %79 = getelementptr inbounds i32, i32* %77, i64 4
  %80 = bitcast i32* %79 to <4 x i32>*
  store <4 x i32> %76, <4 x i32>* %80, align 4, !tbaa !5
  %81 = add nuw i64 %54, 16
  %82 = add i64 %55, -2
  %83 = icmp eq i64 %82, 0
  br i1 %83, label %84, label %53, !llvm.loop !11

84:                                               ; preds = %53, %43
  %85 = phi i64 [ 0, %43 ], [ %81, %53 ]
  %86 = icmp eq i64 %49, 0
  br i1 %86, label %100, label %87

87:                                               ; preds = %84
  %88 = add i64 %85, %32
  %89 = add nsw i64 %88, 1
  %90 = getelementptr inbounds [100 x i32], [100 x i32]* %2, i64 0, i64 %89
  %91 = bitcast i32* %90 to <4 x i32>*
  %92 = load <4 x i32>, <4 x i32>* %91, align 4, !tbaa !5
  %93 = getelementptr inbounds i32, i32* %90, i64 4
  %94 = bitcast i32* %93 to <4 x i32>*
  %95 = load <4 x i32>, <4 x i32>* %94, align 4, !tbaa !5
  %96 = getelementptr inbounds [100 x i32], [100 x i32]* %2, i64 0, i64 %88
  %97 = bitcast i32* %96 to <4 x i32>*
  store <4 x i32> %92, <4 x i32>* %97, align 4, !tbaa !5
  %98 = getelementptr inbounds i32, i32* %96, i64 4
  %99 = bitcast i32* %98 to <4 x i32>*
  store <4 x i32> %95, <4 x i32>* %99, align 4, !tbaa !5
  br label %100

100:                                              ; preds = %84, %87
  %101 = icmp eq i64 %41, %44
  br i1 %101, label %111, label %102

102:                                              ; preds = %39, %100
  %103 = phi i64 [ %32, %39 ], [ %45, %100 ]
  br label %104

104:                                              ; preds = %102, %104
  %105 = phi i64 [ %106, %104 ], [ %103, %102 ]
  %106 = add nsw i64 %105, 1
  %107 = getelementptr inbounds [100 x i32], [100 x i32]* %2, i64 0, i64 %106
  %108 = load i32, i32* %107, align 4, !tbaa !5
  %109 = getelementptr inbounds [100 x i32], [100 x i32]* %2, i64 0, i64 %105
  store i32 %108, i32* %109, align 4, !tbaa !5
  %110 = icmp eq i64 %106, %40
  br i1 %110, label %111, label %104, !llvm.loop !13

111:                                              ; preds = %104, %100, %36
  store i32 %37, i32* %1, align 4, !tbaa !5
  %112 = add nsw i32 %31, -1
  br label %113

113:                                              ; preds = %29, %111
  %114 = phi i32 [ %37, %111 ], [ %30, %29 ]
  %115 = phi i32 [ %112, %111 ], [ %31, %29 ]
  %116 = add nsw i32 %115, 1
  %117 = icmp slt i32 %116, %114
  br i1 %117, label %29, label %23, !llvm.loop !15

118:                                              ; preds = %23, %118
  %119 = phi i64 [ %123, %118 ], [ 0, %23 ]
  %120 = getelementptr inbounds [100 x i32], [100 x i32]* %2, i64 0, i64 %119
  %121 = load i32, i32* %120, align 4, !tbaa !5
  %122 = call i32 (i8*, ...) @printf(i8* nonnull dereferenceable(1) getelementptr inbounds ([4 x i8], [4 x i8]* @.str.1, i64 0, i64 0), i32 %121)
  %123 = add nuw nsw i64 %119, 1
  %124 = load i32, i32* %1, align 4, !tbaa !5
  %125 = add nsw i32 %124, -1
  %126 = sext i32 %125 to i64
  %127 = icmp slt i64 %123, %126
  br i1 %127, label %118, label %128, !llvm.loop !16

128:                                              ; preds = %118, %25
  %129 = phi i64 [ %28, %25 ], [ %126, %118 ]
  %130 = getelementptr inbounds [100 x i32], [100 x i32]* %2, i64 0, i64 %129
  %131 = load i32, i32* %130, align 4, !tbaa !5
  %132 = call i32 (i8*, ...) @printf(i8* nonnull dereferenceable(1) getelementptr inbounds ([4 x i8], [4 x i8]* @.str.2, i64 0, i64 0), i32 %131)
  call void @llvm.lifetime.end.p0i8(i64 4, i8* nonnull %6) #3
  call void @llvm.lifetime.end.p0i8(i64 400, i8* nonnull %5) #3
  call void @llvm.lifetime.end.p0i8(i64 4, i8* nonnull %4) #3
  ret i32 0
}

; Function Attrs: argmemonly mustprogress nofree nosync nounwind willreturn
declare void @llvm.lifetime.start.p0i8(i64 immarg, i8* nocapture) #1

; Function Attrs: nofree nounwind
declare noundef i32 @__isoc99_scanf(i8* nocapture noundef readonly, ...) local_unnamed_addr #2

; Function Attrs: nofree nounwind
declare noundef i32 @printf(i8* nocapture noundef readonly, ...) local_unnamed_addr #2

; Function Attrs: argmemonly mustprogress nofree nosync nounwind willreturn
declare void @llvm.lifetime.end.p0i8(i64 immarg, i8* nocapture) #1


!llvm.module.flags = !{!0, !1, !2, !3}
!llvm.ident = !{!4}

!0 = !{i32 1, !"wchar_size", i32 4}
!1 = !{i32 7, !"PIC Level", i32 2}
!2 = !{i32 7, !"PIE Level", i32 2}
!3 = !{i32 7, !"uwtable", i32 1}
!4 = !{!"clang version 13.0.0"}
!5 = !{!6, !6, i64 0}
!6 = !{!"int", !7, i64 0}
!7 = !{!"omnipotent char", !8, i64 0}
!8 = !{!"Simple C/C++ TBAA"}
!9 = distinct !{!9, !10}
!10 = !{!"llvm.loop.mustprogress"}
!11 = distinct !{!11, !10, !12}
!12 = !{!"llvm.loop.isvectorized", i32 1}
!13 = distinct !{!13, !10, !14, !12}
!14 = !{!"llvm.loop.unroll.runtime.disable"}
!15 = distinct !{!15, !10}
!16 = distinct !{!16, !10}
